; Function Attrs: mustprogress nofree norecurse nosync nounwind willreturn memory(argmem: write) uwtable
define internal void @_ZN9grpc_core12_GLOBAL__N_125StdoutLoggerConfigFactory27ConvertXdsAuditLoggerConfigB5cxx11ERKNS_15XdsResourceType13DecodeContextESt17basic_string_viewIcSt11char_traitsIcEEPNS_16ValidationErrorsE(ptr noalias sret(%"class.std::map.67") align 8 %agg.result, ptr nocapture nonnull readnone align 8 %this, ptr nocapture nonnull readnone align 8 %0, i64 %.coerce0, ptr nocapture readnone %.coerce1, ptr nocapture readnone %1) unnamed_addr #11 align 2 personality ptr @__gxx_personality_v0 {
entry:
  %2 = getelementptr inbounds i8, ptr %agg.result, i64 8
  %_M_left.i.i.i.i.i = getelementptr inbounds i8, ptr %agg.result, i64 24
  tail call void @llvm.memset.p0.i64(ptr noundef nonnull align 8 dereferenceable(24) %agg.result, i8 0, i64 24, i1 false)
  store ptr %2, ptr %_M_left.i.i.i.i.i, align 8
  %_M_right.i.i.i.i.i = getelementptr inbounds i8, ptr %agg.result, i64 32
  store ptr %2, ptr %_M_right.i.i.i.i.i, align 8
  %_M_node_count.i.i.i.i.i = getelementptr inbounds i8, ptr %agg.result, i64 40
  store i64 0, ptr %_M_node_count.i.i.i.i.i, align 8
  ret void
}